target datalayout = "e-m:e-p270:32:32-p271:32:32-p272:64:64-i64:64-i128:128-f80:128-n8:16:32:64-S128"
target triple = "x86_64-pc-linux-gnu"

%struct.H5O_loc_t = type { ptr, i64, i8 }
%struct.H5A_t = type { %struct.H5O_shared_t, %struct.H5O_loc_t, i8, %struct.H5G_name_t, ptr }
%struct.H5O_shared_t = type { i32, ptr, i32, %union.anon }
%union.anon = type { %struct.H5O_mesg_loc_t }
%struct.H5O_mesg_loc_t = type { i32, i64 }
%struct.H5G_name_t = type { ptr, ptr, i32 }
%struct.H5A_shared_t = type { i8, ptr, i32, ptr, i64, ptr, i64, ptr, i64, i32, i32 }
%struct.H5O_mesg_t = type { ptr, i8, i8, i32, i32, ptr, ptr, i64 }
%struct.H5O_iter_rm_t = type { ptr, ptr, i8 }

@.str = private unnamed_addr constant [106 x i8] c"generated/home/dtcxzyw/WorkSpace/Projects/compilers/llvm-opt-benchmark/bench/hdf5/hdf5/src/H5Oattribute.c\00", align 1
@H5E_OHDR_g = external global i64, align 8
@H5E_CANTDELETE_g = external global i64, align 8
@.str.53 = private unnamed_addr constant [36 x i8] c"unable to convert into null message\00", align 1
@__func__.H5O__attr_remove_cb = private unnamed_addr constant [20 x i8] c"H5O__attr_remove_cb\00", align 1

; Function Attrs: nounwind uwtable
define internal i32 @H5O__attr_remove_cb(ptr noundef %0, ptr noundef %1, i32 noundef %2, ptr noundef %3, ptr noundef %4) #0 {
  %6 = alloca ptr, align 8
  %7 = alloca ptr, align 8
  %8 = alloca i32, align 4
  %9 = alloca ptr, align 8
  %10 = alloca ptr, align 8
  %11 = alloca ptr, align 8
  %12 = alloca i32, align 4
  %13 = alloca i8, align 1
  store ptr %0, ptr %6, align 8
  store ptr %1, ptr %7, align 8
  store i32 %2, ptr %8, align 4
  store ptr %3, ptr %9, align 8
  store ptr %4, ptr %10, align 8
  %14 = load ptr, ptr %10, align 8
  store ptr %14, ptr %11, align 8
  store i32 0, ptr %12, align 4
  store i8 0, ptr %13, align 1
  %15 = load ptr, ptr %7, align 8
  %16 = getelementptr inbounds %struct.H5O_mesg_t, ptr %15, i32 0, i32 5
  %17 = load ptr, ptr %16, align 8
  %18 = getelementptr inbounds %struct.H5A_t, ptr %17, i32 0, i32 4
  %19 = load ptr, ptr %18, align 8
  %20 = getelementptr inbounds %struct.H5A_shared_t, ptr %19, i32 0, i32 1
  %21 = load ptr, ptr %20, align 8
  %22 = load ptr, ptr %11, align 8
  %23 = getelementptr inbounds %struct.H5O_iter_rm_t, ptr %22, i32 0, i32 1
  %24 = load ptr, ptr %23, align 8
  %25 = call i32 @strcmp(ptr noundef %21, ptr noundef %24) #8
  %26 = icmp eq i32 %25, 0
  br i1 %26, label %27, label %54

27:                                               ; preds = %5
  %28 = load ptr, ptr %11, align 8
  %29 = getelementptr inbounds %struct.H5O_iter_rm_t, ptr %28, i32 0, i32 0
  %30 = load ptr, ptr %29, align 8
  %31 = load ptr, ptr %6, align 8
  %32 = load ptr, ptr %7, align 8
  %33 = call i32 @H5O__release_mesg(ptr noundef %30, ptr noundef %31, ptr noundef %32, i1 noundef zeroext true)
  %34 = icmp slt i32 %33, 0
  br i1 %34, label %35, label %50

35:                                               ; preds = %27
  br label %36

36:                                               ; preds = %35
  br label %37

37:                                               ; preds = %36
  br label %38

38:                                               ; preds = %37
  %39 = load i64, ptr @H5E_OHDR_g, align 8
  %40 = load i64, ptr @H5E_CANTDELETE_g, align 8
  %41 = call i32 (ptr, ptr, i32, i64, i64, ptr, ...) @H5E_printf_stack(ptr noundef @.str, ptr noundef @__func__.H5O__attr_remove_cb, i32 noundef 1434, i64 noundef %39, i64 noundef %40, ptr noundef @.str.53)
  br label %42

42:                                               ; preds = %38
  store i8 1, ptr %13, align 1
  %43 = load i8, ptr %13, align 1
  %44 = trunc i8 %43 to i1
  %45 = zext i1 %44 to i8
  store i8 %45, ptr %13, align 1
  br label %46

46:                                               ; preds = %42
  br label %47

47:                                               ; preds = %46
  store i32 -1, ptr %12, align 4
  br label %55

48:                                               ; No predecessors!
  br label %49

49:                                               ; preds = %48
  br label %50

50:                                               ; preds = %49, %27
  %51 = load ptr, ptr %9, align 8
  store i32 1, ptr %51, align 4
  %52 = load ptr, ptr %11, align 8
  %53 = getelementptr inbounds %struct.H5O_iter_rm_t, ptr %52, i32 0, i32 2
  store i8 1, ptr %53, align 8
  store i32 1, ptr %12, align 4
  br label %54

54:                                               ; preds = %50, %5
  br label %55

55:                                               ; preds = %54, %47
  %56 = load i32, ptr %12, align 4
  ret i32 %56
}