; Function Attrs: nounwind uwtable
define internal range(i32 -1, 2) i32 @H5O__attr_remove_cb(ptr noundef %0, ptr noundef %1, i32 %2, ptr nocapture noundef writeonly %3, ptr nocapture noundef %4) #0 {
  %6 = getelementptr inbounds i8, ptr %1, i64 24
  %7 = load ptr, ptr %6, align 8
  %8 = getelementptr inbounds i8, ptr %7, i64 96
  %9 = load ptr, ptr %8, align 8
  %10 = getelementptr inbounds i8, ptr %9, i64 8
  %11 = load ptr, ptr %10, align 8
  %12 = getelementptr inbounds i8, ptr %4, i64 8
  %13 = load ptr, ptr %12, align 8
  %14 = tail call i32 @strcmp(ptr noundef nonnull dereferenceable(1) %11, ptr noundef nonnull dereferenceable(1) %13) #11
  %15 = icmp eq i32 %14, 0
  br i1 %15, label %16, label %26

16:                                               ; preds = %5
  %17 = load ptr, ptr %4, align 8
  %18 = tail call i32 @H5O__release_mesg(ptr noundef %17, ptr noundef %0, ptr noundef nonnull %1, i1 noundef zeroext true) #9
  %19 = icmp slt i32 %18, 0
  br i1 %19, label %20, label %24

20:                                               ; preds = %16
  %21 = load i64, ptr @H5E_OHDR_g, align 8
  %22 = load i64, ptr @H5E_CANTDELETE_g, align 8
  %23 = tail call i32 (ptr, ptr, i32, i64, i64, ptr, ...) @H5E_printf_stack(ptr noundef nonnull @.str, ptr noundef nonnull @__func__.H5O__attr_remove_cb, i32 noundef 1434, i64 noundef %21, i64 noundef %22, ptr noundef nonnull @.str.53) #9
  br label %26

24:                                               ; preds = %16
  store i32 1, ptr %3, align 4
  %25 = getelementptr inbounds i8, ptr %4, i64 16
  store i8 1, ptr %25, align 8
  br label %26

26:                                               ; preds = %5, %24, %20
  %.0 = phi i32 [ -1, %20 ], [ 1, %24 ], [ 0, %5 ]
  ret i32 %.0
}